; Function Attrs: mustprogress nofree norecurse nosync nounwind willreturn memory(read, inaccessiblemem: none) uwtable
define dso_local { ptr, i8 } @_ZNK4Luau13DataFlowGraph14getDefOptionalEPKNS_7AstExprE(ptr noundef nonnull readonly align 8 captures(none) dereferenceable(216) %0, ptr noundef %1) local_unnamed_addr #6 align 2 personality ptr @__gxx_personality_v0 {
  %3 = getelementptr inbounds nuw i8, ptr %0, i64 16
  %4 = getelementptr inbounds nuw i8, ptr %0, i64 32
  %5 = load i64, ptr %4, align 8, !tbaa !47
  %6 = icmp eq i64 %5, 0
  br i1 %6, label %.loopexit, label %7

7:                                                ; preds = %2
  %8 = getelementptr inbounds nuw i8, ptr %0, i64 40
  %9 = load ptr, ptr %8, align 8, !tbaa !53
  %10 = icmp eq ptr %1, %9
  br i1 %10, label %.loopexit, label %11

11:                                               ; preds = %7
  %12 = getelementptr inbounds nuw i8, ptr %0, i64 24
  %13 = load i64, ptr %12, align 8, !tbaa !54
  %14 = add i64 %13, -1
  %15 = ptrtoint ptr %1 to i64
  %16 = lshr i64 %15, 4
  %17 = lshr i64 %15, 9
  %18 = xor i64 %16, %17
  %19 = load ptr, ptr %3, align 8, !tbaa !55
  br label %20

20:                                               ; preds = %26, %11
  %.pn.i.i = phi i64 [ %18, %11 ], [ %28, %26 ]
  %.02028.i.i = phi i64 [ 0, %11 ], [ %27, %26 ]
  %.02129.i.i = and i64 %.pn.i.i, %14
  %21 = getelementptr inbounds nuw %"struct.std::pair.126", ptr %19, i64 %.02129.i.i
  %22 = load ptr, ptr %21, align 8, !tbaa !53
  %23 = icmp eq ptr %22, %1
  br i1 %23, label %29, label %24

24:                                               ; preds = %20
  %25 = icmp eq ptr %22, %9
  br i1 %25, label %.loopexit, label %26

26:                                               ; preds = %24
  %27 = add i64 %.02028.i.i, 1
  %28 = add i64 %27, %.02129.i.i
  %.not.i.i = icmp ugt i64 %27, %14
  br i1 %.not.i.i, label %.loopexit, label %20, !llvm.loop !56

29:                                               ; preds = %20
  %30 = getelementptr inbounds nuw i8, ptr %21, i64 8
  %31 = load ptr, ptr %30, align 8, !tbaa !20
  br label %.loopexit

.loopexit:                                        ; preds = %24, %26, %7, %2, %29
  %.sroa.03.0 = phi ptr [ %31, %29 ], [ undef, %2 ], [ undef, %7 ], [ undef, %26 ], [ undef, %24 ]
  %.sroa.2.0 = phi i8 [ 1, %29 ], [ 0, %2 ], [ 0, %7 ], [ 0, %26 ], [ 0, %24 ]
  %.fca.0.insert = insertvalue { ptr, i8 } poison, ptr %.sroa.03.0, 0
  %.fca.1.insert = insertvalue { ptr, i8 } %.fca.0.insert, i8 %.sroa.2.0, 1
  ret { ptr, i8 } %.fca.1.insert
}